; Function Attrs: mustprogress nounwind uwtable
define hidden void @_ZN5Arena17set_size_in_bytesEm(ptr noundef nonnull align 8 dereferenceable(48) %0, i64 noundef %1) local_unnamed_addr #0 align 2 {
  %3 = getelementptr inbounds i8, ptr %0, i64 8
  %4 = load i64, ptr %3, align 8
  %.not = icmp eq i64 %4, %1
  br i1 %.not, label %31, label %5

5:                                                ; preds = %2
  %6 = sub i64 %1, %4
  store i64 %1, ptr %3, align 8
  %7 = load i32, ptr @_ZN10MemTracker15_tracking_levelE, align 4
  %8 = icmp slt i32 %7, 2
  br i1 %8, label %_ZN10MemTracker24record_arena_size_changeEl8MEMFLAGS.exit, label %9

9:                                                ; preds = %5
  %10 = load i8, ptr %0, align 8
  %11 = zext i8 %10 to i64
  %12 = getelementptr inbounds [28 x %class.MallocMemory], ptr @_ZN19MallocMemorySummary9_snapshotE, i64 0, i64 %11
  %13 = getelementptr inbounds i8, ptr %12, i64 32
  %14 = getelementptr inbounds i8, ptr %12, i64 40
  %15 = tail call noundef i64 asm sideeffect "lock xaddq $0,($2)", "=r,0,r,~{cc},~{memory},~{dirflag},~{fpsr},~{flags}"(i64 %6, ptr nonnull %14) #11, !srcloc !9
  %16 = add i64 %15, %6
  %17 = load volatile i64, ptr %13, align 8
  tail call void @_ZN13MemoryCounter11update_peakEmm(ptr noundef nonnull align 8 dereferenceable(32) %13, i64 noundef %16, i64 noundef %17) #11
  br label %_ZN10MemTracker24record_arena_size_changeEl8MEMFLAGS.exit

_ZN10MemTracker24record_arena_size_changeEl8MEMFLAGS.exit: ; preds = %5, %9
  %18 = load i8, ptr @_ZN26CompilationMemoryStatistic8_enabledE, align 1
  %19 = trunc i8 %18 to i1
  %20 = load i8, ptr %0, align 8
  %21 = icmp eq i8 %20, 7
  %or.cond = select i1 %19, i1 %21, i1 false
  br i1 %or.cond, label %22, label %31

22:                                               ; preds = %_ZN10MemTracker24record_arena_size_changeEl8MEMFLAGS.exit
  %23 = tail call align 8 ptr @llvm.threadlocal.address.p0(ptr align 8 @_ZN6Thread12_thr_currentE)
  %24 = load ptr, ptr %23, align 8
  %.not8 = icmp eq ptr %24, null
  br i1 %.not8, label %31, label %25

25:                                               ; preds = %22
  %26 = load ptr, ptr %24, align 8
  %27 = getelementptr inbounds i8, ptr %26, i64 64
  %28 = load ptr, ptr %27, align 8
  %29 = tail call noundef zeroext i1 %28(ptr noundef nonnull align 8 dereferenceable(888) %24) #11
  br i1 %29, label %30, label %31

30:                                               ; preds = %25
  tail call void @_ZN26CompilationMemoryStatistic15on_arena_changeElPK5Arena(i64 noundef %6, ptr noundef nonnull %0) #11
  br label %31

31:                                               ; preds = %_ZN10MemTracker24record_arena_size_changeEl8MEMFLAGS.exit, %30, %25, %22, %2
  ret void
}